target datalayout = "e-m:e-p270:32:32-p271:32:32-p272:64:64-i64:64-i128:128-f80:128-n8:16:32:64-S128"
target triple = "x86_64-pc-linux-gnu"

%struct.SurfaceDataRasInfo = type { %struct.SurfaceDataBounds, ptr, i32, i32, i32, i32, ptr, ptr, ptr, ptr, ptr, ptr, i32, %union.anon.0 }
%struct.SurfaceDataBounds = type { i32, i32, i32, i32 }
%union.anon.0 = type { ptr, [56 x i8] }
%struct._CompositeInfo = type { i32, %union.anon.1, i32 }
%union.anon.1 = type { float }

; Function Attrs: nounwind uwtable
define hidden void @Any3ByteXorLine(ptr noundef %0, i32 noundef %1, i32 noundef %2, i32 noundef %3, i32 noundef %4, i32 noundef %5, i32 noundef %6, i32 noundef %7, i32 noundef %8, i32 noundef %9, ptr noundef %10, ptr noundef %11) #0 {
  %13 = alloca ptr, align 8
  %14 = alloca i32, align 4
  %15 = alloca i32, align 4
  %16 = alloca i32, align 4
  %17 = alloca i32, align 4
  %18 = alloca i32, align 4
  %19 = alloca i32, align 4
  %20 = alloca i32, align 4
  %21 = alloca i32, align 4
  %22 = alloca i32, align 4
  %23 = alloca ptr, align 8
  %24 = alloca ptr, align 8
  %25 = alloca i32, align 4
  %26 = alloca i32, align 4
  %27 = alloca i8, align 1
  %28 = alloca i8, align 1
  %29 = alloca i8, align 1
  %30 = alloca i8, align 1
  %31 = alloca i8, align 1
  %32 = alloca i8, align 1
  %33 = alloca i8, align 1
  %34 = alloca i8, align 1
  %35 = alloca i8, align 1
  %36 = alloca i32, align 4
  %37 = alloca ptr, align 8
  %38 = alloca i32, align 4
  %39 = alloca i32, align 4
  store ptr %0, ptr %13, align 8
  store i32 %1, ptr %14, align 4
  store i32 %2, ptr %15, align 4
  store i32 %3, ptr %16, align 4
  store i32 %4, ptr %17, align 4
  store i32 %5, ptr %18, align 4
  store i32 %6, ptr %19, align 4
  store i32 %7, ptr %20, align 4
  store i32 %8, ptr %21, align 4
  store i32 %9, ptr %22, align 4
  store ptr %10, ptr %23, align 8
  store ptr %11, ptr %24, align 8
  %40 = load ptr, ptr %24, align 8
  %41 = getelementptr inbounds %struct._CompositeInfo, ptr %40, i32 0, i32 1
  %42 = load i32, ptr %41, align 4
  store i32 %42, ptr %25, align 4
  %43 = load ptr, ptr %24, align 8
  %44 = getelementptr inbounds %struct._CompositeInfo, ptr %43, i32 0, i32 2
  %45 = load i32, ptr %44, align 4
  store i32 %45, ptr %26, align 4
  %46 = load ptr, ptr %13, align 8
  %47 = getelementptr inbounds %struct.SurfaceDataRasInfo, ptr %46, i32 0, i32 4
  %48 = load i32, ptr %47, align 8
  store i32 %48, ptr %36, align 4
  %49 = load ptr, ptr %13, align 8
  %50 = getelementptr inbounds %struct.SurfaceDataRasInfo, ptr %49, i32 0, i32 1
  %51 = load ptr, ptr %50, align 8
  %52 = ptrtoint ptr %51 to i64
  %53 = load i32, ptr %15, align 4
  %54 = sext i32 %53 to i64
  %55 = load i32, ptr %36, align 4
  %56 = sext i32 %55 to i64
  %57 = mul nsw i64 %54, %56
  %58 = load i32, ptr %14, align 4
  %59 = sext i32 %58 to i64
  %60 = mul nsw i64 %59, 3
  %61 = add nsw i64 %57, %60
  %62 = add nsw i64 %52, %61
  %63 = inttoptr i64 %62 to ptr
  store ptr %63, ptr %37, align 8
  %64 = load i32, ptr %19, align 4
  %65 = and i32 %64, 1
  %66 = icmp ne i32 %65, 0
  br i1 %66, label %67, label %68

67:                                               ; preds = %12
  br label %86

68:                                               ; preds = %12
  %69 = load i32, ptr %19, align 4
  %70 = and i32 %69, 2
  %71 = icmp ne i32 %70, 0
  br i1 %71, label %72, label %73

72:                                               ; preds = %68
  br label %84

73:                                               ; preds = %68
  %74 = load i32, ptr %19, align 4
  %75 = and i32 %74, 4
  %76 = icmp ne i32 %75, 0
  br i1 %76, label %77, label %79

77:                                               ; preds = %73
  %78 = load i32, ptr %36, align 4
  br label %82

79:                                               ; preds = %73
  %80 = load i32, ptr %36, align 4
  %81 = sub nsw i32 0, %80
  br label %82

82:                                               ; preds = %79, %77
  %83 = phi i32 [ %78, %77 ], [ %81, %79 ]
  br label %84

84:                                               ; preds = %82, %72
  %85 = phi i32 [ -3, %72 ], [ %83, %82 ]
  br label %86

86:                                               ; preds = %84, %67
  %87 = phi i32 [ 3, %67 ], [ %85, %84 ]
  store i32 %87, ptr %38, align 4
  %88 = load i32, ptr %21, align 4
  %89 = and i32 %88, 1
  %90 = icmp ne i32 %89, 0
  br i1 %90, label %91, label %92

91:                                               ; preds = %86
  br label %117

92:                                               ; preds = %86
  %93 = load i32, ptr %21, align 4
  %94 = and i32 %93, 2
  %95 = icmp ne i32 %94, 0
  br i1 %95, label %96, label %97

96:                                               ; preds = %92
  br label %115

97:                                               ; preds = %92
  %98 = load i32, ptr %21, align 4
  %99 = and i32 %98, 4
  %100 = icmp ne i32 %99, 0
  br i1 %100, label %101, label %103

101:                                              ; preds = %97
  %102 = load i32, ptr %36, align 4
  br label %113

103:                                              ; preds = %97
  %104 = load i32, ptr %21, align 4
  %105 = and i32 %104, 8
  %106 = icmp ne i32 %105, 0
  br i1 %106, label %107, label %110

107:                                              ; preds = %103
  %108 = load i32, ptr %36, align 4
  %109 = sub nsw i32 0, %108
  br label %111

110:                                              ; preds = %103
  br label %111

111:                                              ; preds = %110, %107
  %112 = phi i32 [ %109, %107 ], [ 0, %110 ]
  br label %113

113:                                              ; preds = %111, %101
  %114 = phi i32 [ %102, %101 ], [ %112, %111 ]
  br label %115

115:                                              ; preds = %113, %96
  %116 = phi i32 [ -3, %96 ], [ %114, %113 ]
  br label %117

117:                                              ; preds = %115, %91
  %118 = phi i32 [ 3, %91 ], [ %116, %115 ]
  store i32 %118, ptr %39, align 4
  %119 = load i32, ptr %38, align 4
  %120 = load i32, ptr %39, align 4
  %121 = add nsw i32 %120, %119
  store i32 %121, ptr %39, align 4
  br label %122

122:                                              ; preds = %117
  %123 = load i32, ptr %25, align 4
  %124 = trunc i32 %123 to i8
  store i8 %124, ptr %27, align 1
  %125 = load i32, ptr %25, align 4
  %126 = ashr i32 %125, 8
  %127 = trunc i32 %126 to i8
  store i8 %127, ptr %28, align 1
  %128 = load i32, ptr %25, align 4
  %129 = ashr i32 %128, 16
  %130 = trunc i32 %129 to i8
  store i8 %130, ptr %29, align 1
  br label %131

131:                                              ; preds = %122
  br label %132

132:                                              ; preds = %131
  %133 = load i32, ptr %16, align 4
  %134 = trunc i32 %133 to i8
  store i8 %134, ptr %30, align 1
  %135 = load i32, ptr %16, align 4
  %136 = ashr i32 %135, 8
  %137 = trunc i32 %136 to i8
  store i8 %137, ptr %31, align 1
  %138 = load i32, ptr %16, align 4
  %139 = ashr i32 %138, 16
  %140 = trunc i32 %139 to i8
  store i8 %140, ptr %32, align 1
  br label %141

141:                                              ; preds = %132
  br label %142

142:                                              ; preds = %141
  %143 = load i32, ptr %26, align 4
  %144 = trunc i32 %143 to i8
  store i8 %144, ptr %33, align 1
  %145 = load i32, ptr %26, align 4
  %146 = lshr i32 %145, 8
  %147 = trunc i32 %146 to i8
  store i8 %147, ptr %34, align 1
  %148 = load i32, ptr %26, align 4
  %149 = lshr i32 %148, 16
  %150 = trunc i32 %149 to i8
  store i8 %150, ptr %35, align 1
  br label %151

151:                                              ; preds = %142
  %152 = load i32, ptr %20, align 4
  %153 = icmp eq i32 %152, 0
  br i1 %153, label %154, label %214

154:                                              ; preds = %151
  br label %155

155:                                              ; preds = %209, %154
  br label %156

156:                                              ; preds = %155
  %157 = load i8, ptr %30, align 1
  %158 = zext i8 %157 to i32
  %159 = load i8, ptr %27, align 1
  %160 = zext i8 %159 to i32
  %161 = xor i32 %158, %160
  %162 = load i8, ptr %33, align 1
  %163 = zext i8 %162 to i32
  %164 = xor i32 %163, -1
  %165 = and i32 %161, %164
  %166 = load ptr, ptr %37, align 8
  %167 = getelementptr inbounds i8, ptr %166, i64 0
  %168 = load i8, ptr %167, align 1
  %169 = zext i8 %168 to i32
  %170 = xor i32 %169, %165
  %171 = trunc i32 %170 to i8
  store i8 %171, ptr %167, align 1
  %172 = load i8, ptr %31, align 1
  %173 = zext i8 %172 to i32
  %174 = load i8, ptr %28, align 1
  %175 = zext i8 %174 to i32
  %176 = xor i32 %173, %175
  %177 = load i8, ptr %34, align 1
  %178 = zext i8 %177 to i32
  %179 = xor i32 %178, -1
  %180 = and i32 %176, %179
  %181 = load ptr, ptr %37, align 8
  %182 = getelementptr inbounds i8, ptr %181, i64 1
  %183 = load i8, ptr %182, align 1
  %184 = zext i8 %183 to i32
  %185 = xor i32 %184, %180
  %186 = trunc i32 %185 to i8
  store i8 %186, ptr %182, align 1
  %187 = load i8, ptr %32, align 1
  %188 = zext i8 %187 to i32
  %189 = load i8, ptr %29, align 1
  %190 = zext i8 %189 to i32
  %191 = xor i32 %188, %190
  %192 = load i8, ptr %35, align 1
  %193 = zext i8 %192 to i32
  %194 = xor i32 %193, -1
  %195 = and i32 %191, %194
  %196 = load ptr, ptr %37, align 8
  %197 = getelementptr inbounds i8, ptr %196, i64 2
  %198 = load i8, ptr %197, align 1
  %199 = zext i8 %198 to i32
  %200 = xor i32 %199, %195
  %201 = trunc i32 %200 to i8
  store i8 %201, ptr %197, align 1
  br label %202

202:                                              ; preds = %156
  %203 = load ptr, ptr %37, align 8
  %204 = ptrtoint ptr %203 to i64
  %205 = load i32, ptr %38, align 4
  %206 = sext i32 %205 to i64
  %207 = add nsw i64 %204, %206
  %208 = inttoptr i64 %207 to ptr
  store ptr %208, ptr %37, align 8
  br label %209

209:                                              ; preds = %202
  %210 = load i32, ptr %17, align 4
  %211 = add nsw i32 %210, -1
  store i32 %211, ptr %17, align 4
  %212 = icmp sgt i32 %211, 0
  br i1 %212, label %155, label %213, !llvm.loop !21

213:                                              ; preds = %209
  br label %291

214:                                              ; preds = %151
  br label %215

215:                                              ; preds = %286, %214
  br label %216

216:                                              ; preds = %215
  %217 = load i8, ptr %30, align 1
  %218 = zext i8 %217 to i32
  %219 = load i8, ptr %27, align 1
  %220 = zext i8 %219 to i32
  %221 = xor i32 %218, %220
  %222 = load i8, ptr %33, align 1
  %223 = zext i8 %222 to i32
  %224 = xor i32 %223, -1
  %225 = and i32 %221, %224
  %226 = load ptr, ptr %37, align 8
  %227 = getelementptr inbounds i8, ptr %226, i64 0
  %228 = load i8, ptr %227, align 1
  %229 = zext i8 %228 to i32
  %230 = xor i32 %229, %225
  %231 = trunc i32 %230 to i8
  store i8 %231, ptr %227, align 1
  %232 = load i8, ptr %31, align 1
  %233 = zext i8 %232 to i32
  %234 = load i8, ptr %28, align 1
  %235 = zext i8 %234 to i32
  %236 = xor i32 %233, %235
  %237 = load i8, ptr %34, align 1
  %238 = zext i8 %237 to i32
  %239 = xor i32 %238, -1
  %240 = and i32 %236, %239
  %241 = load ptr, ptr %37, align 8
  %242 = getelementptr inbounds i8, ptr %241, i64 1
  %243 = load i8, ptr %242, align 1
  %244 = zext i8 %243 to i32
  %245 = xor i32 %244, %240
  %246 = trunc i32 %245 to i8
  store i8 %246, ptr %242, align 1
  %247 = load i8, ptr %32, align 1
  %248 = zext i8 %247 to i32
  %249 = load i8, ptr %29, align 1
  %250 = zext i8 %249 to i32
  %251 = xor i32 %248, %250
  %252 = load i8, ptr %35, align 1
  %253 = zext i8 %252 to i32
  %254 = xor i32 %253, -1
  %255 = and i32 %251, %254
  %256 = load ptr, ptr %37, align 8
  %257 = getelementptr inbounds i8, ptr %256, i64 2
  %258 = load i8, ptr %257, align 1
  %259 = zext i8 %258 to i32
  %260 = xor i32 %259, %255
  %261 = trunc i32 %260 to i8
  store i8 %261, ptr %257, align 1
  br label %262

262:                                              ; preds = %216
  %263 = load i32, ptr %18, align 4
  %264 = icmp slt i32 %263, 0
  br i1 %264, label %265, label %275

265:                                              ; preds = %262
  %266 = load ptr, ptr %37, align 8
  %267 = ptrtoint ptr %266 to i64
  %268 = load i32, ptr %38, align 4
  %269 = sext i32 %268 to i64
  %270 = add nsw i64 %267, %269
  %271 = inttoptr i64 %270 to ptr
  store ptr %271, ptr %37, align 8
  %272 = load i32, ptr %20, align 4
  %273 = load i32, ptr %18, align 4
  %274 = add nsw i32 %273, %272
  store i32 %274, ptr %18, align 4
  br label %285

275:                                              ; preds = %262
  %276 = load ptr, ptr %37, align 8
  %277 = ptrtoint ptr %276 to i64
  %278 = load i32, ptr %39, align 4
  %279 = sext i32 %278 to i64
  %280 = add nsw i64 %277, %279
  %281 = inttoptr i64 %280 to ptr
  store ptr %281, ptr %37, align 8
  %282 = load i32, ptr %22, align 4
  %283 = load i32, ptr %18, align 4
  %284 = sub nsw i32 %283, %282
  store i32 %284, ptr %18, align 4
  br label %285

285:                                              ; preds = %275, %265
  br label %286

286:                                              ; preds = %285
  %287 = load i32, ptr %17, align 4
  %288 = add nsw i32 %287, -1
  store i32 %288, ptr %17, align 4
  %289 = icmp sgt i32 %288, 0
  br i1 %289, label %215, label %290, !llvm.loop !22

290:                                              ; preds = %286
  br label %291

291:                                              ; preds = %290, %213
  ret void
}