; Function Attrs: nofree norecurse nosync nounwind memory(readwrite, inaccessiblemem: none) uwtable
define hidden void @Any3ByteXorLine(ptr nocapture noundef readonly %0, i32 noundef %1, i32 noundef %2, i32 noundef %3, i32 noundef %4, i32 noundef %5, i32 noundef %6, i32 noundef %7, i32 noundef %8, i32 noundef %9, ptr nocapture readnone %10, ptr nocapture noundef readonly %11) #2 {
  %13 = getelementptr inbounds i8, ptr %11, i64 4
  %14 = load i32, ptr %13, align 4
  %15 = getelementptr inbounds i8, ptr %11, i64 8
  %16 = load i32, ptr %15, align 4
  %17 = getelementptr inbounds i8, ptr %0, i64 32
  %18 = load i32, ptr %17, align 8
  %19 = getelementptr inbounds i8, ptr %0, i64 16
  %20 = load ptr, ptr %19, align 8
  %21 = ptrtoint ptr %20 to i64
  %22 = sext i32 %2 to i64
  %23 = sext i32 %18 to i64
  %24 = mul nsw i64 %23, %22
  %25 = sext i32 %1 to i64
  %26 = mul nsw i64 %25, 3
  %27 = add nsw i64 %24, %26
  %28 = add nsw i64 %27, %21
  %29 = inttoptr i64 %28 to ptr
  %30 = and i32 %6, 1
  %.not = icmp eq i32 %30, 0
  br i1 %.not, label %31, label %37

31:                                               ; preds = %12
  %32 = and i32 %6, 2
  %.not71 = icmp eq i32 %32, 0
  br i1 %.not71, label %33, label %37

33:                                               ; preds = %31
  %34 = and i32 %6, 4
  %.not72 = icmp eq i32 %34, 0
  %35 = sub nsw i32 0, %18
  %36 = select i1 %.not72, i32 %35, i32 %18
  br label %37

37:                                               ; preds = %33, %31, %12
  %38 = phi i32 [ 3, %12 ], [ %36, %33 ], [ -3, %31 ]
  %39 = and i32 %8, 1
  %.not73 = icmp eq i32 %39, 0
  br i1 %.not73, label %40, label %48

40:                                               ; preds = %37
  %41 = and i32 %8, 2
  %.not74 = icmp eq i32 %41, 0
  br i1 %.not74, label %42, label %48

42:                                               ; preds = %40
  %43 = and i32 %8, 4
  %.not75 = icmp eq i32 %43, 0
  br i1 %.not75, label %44, label %48

44:                                               ; preds = %42
  %45 = and i32 %8, 8
  %.not76 = icmp eq i32 %45, 0
  %46 = sub nsw i32 0, %18
  %47 = select i1 %.not76, i32 0, i32 %46
  br label %48

48:                                               ; preds = %42, %40, %44, %37
  %49 = phi i32 [ 3, %37 ], [ -3, %40 ], [ %47, %44 ], [ %18, %42 ]
  %50 = icmp eq i32 %7, 0
  %51 = xor i32 %14, %3
  %52 = xor i32 %16, -1
  %53 = and i32 %51, %52
  %54 = trunc i32 %53 to i8
  %55 = xor i32 %14, %3
  %56 = xor i32 %16, -1
  %57 = and i32 %55, %56
  %58 = lshr i32 %57, 8
  %59 = trunc i32 %58 to i8
  %60 = xor i32 %14, %3
  %61 = xor i32 %16, -1
  %62 = and i32 %60, %61
  %63 = lshr i32 %62, 16
  %64 = trunc i32 %63 to i8
  br i1 %50, label %.preheader, label %.preheader77

.preheader77:                                     ; preds = %48
  %65 = sub i32 0, %9
  br label %81

.preheader:                                       ; preds = %48
  %66 = sext i32 %38 to i64
  br label %67

67:                                               ; preds = %.preheader, %67
  %.066 = phi ptr [ %78, %67 ], [ %29, %.preheader ]
  %.0 = phi i32 [ %79, %67 ], [ %4, %.preheader ]
  %68 = load i8, ptr %.066, align 1
  %69 = xor i8 %68, %54
  store i8 %69, ptr %.066, align 1
  %70 = getelementptr inbounds i8, ptr %.066, i64 1
  %71 = load i8, ptr %70, align 1
  %72 = xor i8 %71, %59
  store i8 %72, ptr %70, align 1
  %73 = getelementptr inbounds i8, ptr %.066, i64 2
  %74 = load i8, ptr %73, align 1
  %75 = xor i8 %74, %64
  store i8 %75, ptr %73, align 1
  %76 = ptrtoint ptr %.066 to i64
  %77 = add nsw i64 %76, %66
  %78 = inttoptr i64 %77 to ptr
  %79 = add nsw i32 %.0, -1
  %80 = icmp sgt i32 %.0, 1
  br i1 %80, label %67, label %.loopexit, !llvm.loop !21

81:                                               ; preds = %.preheader77, %81
  %.068 = phi i32 [ %.169, %81 ], [ %5, %.preheader77 ]
  %.167 = phi ptr [ %.2, %81 ], [ %29, %.preheader77 ]
  %.1 = phi i32 [ %93, %81 ], [ %4, %.preheader77 ]
  %82 = load i8, ptr %.167, align 1
  %83 = xor i8 %82, %54
  store i8 %83, ptr %.167, align 1
  %84 = getelementptr inbounds i8, ptr %.167, i64 1
  %85 = load i8, ptr %84, align 1
  %86 = xor i8 %85, %59
  store i8 %86, ptr %84, align 1
  %87 = getelementptr inbounds i8, ptr %.167, i64 2
  %88 = load i8, ptr %87, align 1
  %89 = xor i8 %88, %64
  store i8 %89, ptr %87, align 1
  %90 = icmp slt i32 %.068, 0
  %91 = ptrtoint ptr %.167 to i64
  %.169.p = select i1 %90, i32 %7, i32 %65
  %.169 = add i32 %.068, %.169.p
  %92 = select i1 %90, i32 0, i32 %49
  %.2.in.v.v = add nsw i32 %38, %92
  %.2.in.v = sext i32 %.2.in.v.v to i64
  %.2.in = add nsw i64 %91, %.2.in.v
  %.2 = inttoptr i64 %.2.in to ptr
  %93 = add nsw i32 %.1, -1
  %94 = icmp sgt i32 %.1, 1
  br i1 %94, label %81, label %.loopexit, !llvm.loop !22

.loopexit:                                        ; preds = %81, %67
  ret void
}